target datalayout = "e-m:e-p270:32:32-p271:32:32-p272:64:64-i64:64-i128:128-f80:128-n8:16:32:64-S128"
target triple = "x86_64-pc-linux-gnu"

%struct.QMetaObject = type { %"struct.QMetaObject::Data" }
%"struct.QMetaObject::Data" = type { %"struct.QMetaObject::SuperData", ptr, ptr, ptr, ptr, ptr, ptr }
%"struct.QMetaObject::SuperData" = type { ptr }
%"class.QMetaObject::Connection" = type { ptr }
%class.PacketDiagram = type <{ %class.QGraphicsView, ptr, ptr, ptr, ptr, i32, [4 x i8] }>
%class.QGraphicsView = type { %class.QAbstractScrollArea }
%class.QAbstractScrollArea = type { %class.QFrame }
%class.QFrame = type { %class.QWidget }
%class.QWidget = type { %class.QObject, %class.QPaintDevice.base, ptr }
%class.QObject = type { ptr, %class.QScopedPointer }
%class.QScopedPointer = type { ptr }
%class.QPaintDevice.base = type <{ ptr, i16 }>
%class.QAtomicInt = type { %class.QAtomicInteger }
%class.QAtomicInteger = type { %class.QBasicAtomicInteger }
%class.QBasicAtomicInteger = type { %"struct.std::atomic" }
%"struct.std::atomic" = type { %"struct.std::__atomic_base" }
%"struct.std::__atomic_base" = type { i32 }
%"class.QtPrivate::QSlotObject" = type { %"class.QtPrivate::QSlotObjectBase", { i64, i64 } }
%"class.QtPrivate::QSlotObjectBase" = type { %class.QAtomicInt, ptr }

@_ZN14QGraphicsScene16staticMetaObjectE = external global %struct.QMetaObject, align 8

; Function Attrs: mustprogress nounwind null_pointer_is_valid sspstrong uwtable
define linkonce_odr void @_ZNSt13__atomic_baseIiEC2Ei(ptr noundef align 4 dereferenceable_or_null(4) %0, i32 noundef %1) unnamed_addr #8 comdat align 2 {
  %3 = alloca ptr, align 8
  %4 = alloca i32, align 4
  store ptr %0, ptr %3, align 8
  store i32 %1, ptr %4, align 4
  %5 = load ptr, ptr %3, align 8
  %6 = getelementptr inbounds nuw %"struct.std::__atomic_base", ptr %5, i32 0, i32 0
  %7 = load i32, ptr %4, align 4
  store i32 %7, ptr %6, align 4
  ret void
}

; Function Attrs: mustprogress nounwind null_pointer_is_valid sspstrong uwtable
define linkonce_odr void @_ZNSt6atomicIiEC2Ei(ptr noundef align 4 dereferenceable_or_null(4) %0, i32 noundef %1) unnamed_addr #8 comdat align 2 {
  %3 = alloca ptr, align 8
  %4 = alloca i32, align 4
  store ptr %0, ptr %3, align 8
  store i32 %1, ptr %4, align 4
  %5 = load ptr, ptr %3, align 8
  %6 = load i32, ptr %4, align 4
  call void @_ZNSt13__atomic_baseIiEC2Ei(ptr noundef align 4 dereferenceable_or_null(4) %5, i32 noundef %6) #22
  ret void
}

; Function Attrs: mustprogress nounwind null_pointer_is_valid sspstrong uwtable
define linkonce_odr void @_ZN19QBasicAtomicIntegerIiEC2Ei(ptr noundef align 4 dereferenceable_or_null(4) %0, i32 noundef %1) unnamed_addr #8 comdat align 2 {
  %3 = alloca ptr, align 8
  %4 = alloca i32, align 4
  store ptr %0, ptr %3, align 8
  store i32 %1, ptr %4, align 4
  %5 = load ptr, ptr %3, align 8
  %6 = getelementptr inbounds nuw %class.QBasicAtomicInteger, ptr %5, i32 0, i32 0
  %7 = load i32, ptr %4, align 4
  call void @_ZNSt6atomicIiEC2Ei(ptr noundef align 4 dereferenceable_or_null(4) %6, i32 noundef %7) #22
  ret void
}

; Function Attrs: mustprogress nounwind null_pointer_is_valid sspstrong uwtable
define linkonce_odr void @_ZN14QAtomicIntegerIiEC2Ei(ptr noundef align 4 dereferenceable_or_null(4) %0, i32 noundef %1) unnamed_addr #8 comdat align 2 {
  %3 = alloca ptr, align 8
  %4 = alloca i32, align 4
  store ptr %0, ptr %3, align 8
  store i32 %1, ptr %4, align 4
  %5 = load ptr, ptr %3, align 8
  %6 = load i32, ptr %4, align 4
  call void @_ZN19QBasicAtomicIntegerIiEC2Ei(ptr noundef align 4 dereferenceable_or_null(4) %5, i32 noundef %6) #22
  ret void
}

; Function Attrs: mustprogress nounwind null_pointer_is_valid sspstrong uwtable
define linkonce_odr void @_ZN10QAtomicIntC2Ei(ptr noundef align 4 dereferenceable_or_null(4) %0, i32 noundef %1) unnamed_addr #8 comdat align 2 {
  %3 = alloca ptr, align 8
  %4 = alloca i32, align 4
  store ptr %0, ptr %3, align 8
  store i32 %1, ptr %4, align 4
  %5 = load ptr, ptr %3, align 8
  %6 = load i32, ptr %4, align 4
  call void @_ZN14QAtomicIntegerIiEC2Ei(ptr noundef align 4 dereferenceable_or_null(4) %5, i32 noundef %6) #22
  ret void
}

; Function Attrs: mustprogress nounwind null_pointer_is_valid sspstrong uwtable
define linkonce_odr void @_ZN9QtPrivate15QSlotObjectBaseC2EPFviPS0_P7QObjectPPvPbE(ptr noundef align 8 dereferenceable_or_null(16) %0, ptr noundef %1) unnamed_addr #8 comdat align 2 {
  %3 = alloca ptr, align 8
  %4 = alloca ptr, align 8
  store ptr %0, ptr %3, align 8
  store ptr %1, ptr %4, align 8
  %5 = load ptr, ptr %3, align 8
  %6 = getelementptr inbounds nuw %"class.QtPrivate::QSlotObjectBase", ptr %5, i32 0, i32 0
  call void @_ZN10QAtomicIntC2Ei(ptr noundef align 4 dereferenceable_or_null(4) %6, i32 noundef 1) #22
  %7 = getelementptr inbounds nuw %"class.QtPrivate::QSlotObjectBase", ptr %5, i32 0, i32 1
  %8 = load ptr, ptr %4, align 8
  store ptr %8, ptr %7, align 8
  ret void
}

; Function Attrs: mustprogress null_pointer_is_valid sspstrong uwtable
define linkonce_odr void @_ZN9QtPrivate11QSlotObjectIM13PacketDiagramFvvENS_4ListIJEEEvEC2ES3_(ptr noundef align 8 dereferenceable_or_null(32) %0, i64 %1, i64 %2) unnamed_addr #0 comdat align 2 {
  %4 = alloca { i64, i64 }, align 8
  %5 = alloca ptr, align 8
  %6 = alloca { i64, i64 }, align 8
  %7 = getelementptr inbounds nuw { i64, i64 }, ptr %4, i32 0, i32 0
  store i64 %1, ptr %7, align 8
  %8 = getelementptr inbounds nuw { i64, i64 }, ptr %4, i32 0, i32 1
  store i64 %2, ptr %8, align 8
  %9 = load { i64, i64 }, ptr %4, align 8
  store ptr %0, ptr %5, align 8
  store { i64, i64 } %9, ptr %6, align 8
  %10 = load ptr, ptr %5, align 8
  call void @_ZN9QtPrivate15QSlotObjectBaseC2EPFviPS0_P7QObjectPPvPbE(ptr noundef align 8 dereferenceable_or_null(16) %10, ptr noundef @_ZN9QtPrivate11QSlotObjectIM13PacketDiagramFvvENS_4ListIJEEEvE4implEiPNS_15QSlotObjectBaseEP7QObjectPPvPb)
  %11 = getelementptr inbounds nuw %"class.QtPrivate::QSlotObject", ptr %10, i32 0, i32 1
  %12 = load { i64, i64 }, ptr %6, align 8
  store { i64, i64 } %12, ptr %11, align 8
  ret void
}

; Function Attrs: mustprogress nounwind null_pointer_is_valid sspstrong uwtable
define linkonce_odr noundef ptr @_ZN9QtPrivate15ConnectionTypesINS_4ListIJEEELb1EE5typesEv() #8 comdat align 2 {
  ret ptr null
}

; Function Attrs: inlinehint mustprogress null_pointer_is_valid sspstrong uwtable
define linkonce_odr void @_ZN7QObject7connectIM14QGraphicsSceneFvvEM13PacketDiagramFvvEEEN11QMetaObject10ConnectionEPKN9QtPrivate15FunctionPointerIT_E6ObjectESB_PKNSA_IT0_E6ObjectESG_N2Qt14ConnectionTypeE(ptr dead_on_unwind noalias writable sret(%"class.QMetaObject::Connection") align 8 %0, ptr noundef %1, i64 %2, i64 %3, ptr noundef %4, ptr noundef byval({ i64, i64 }) align 8 %5, i32 noundef %6) #5 comdat align 2 personality ptr @__gxx_personality_v0 {
  %8 = alloca ptr, align 8
  %9 = alloca { i64, i64 }, align 8
  %10 = alloca ptr, align 8
  %11 = alloca { i64, i64 }, align 8
  %12 = alloca ptr, align 8
  %13 = alloca { i64, i64 }, align 8
  %14 = alloca i32, align 4
  %15 = alloca ptr, align 8
  %16 = alloca { i64, i64 }, align 8
  %17 = alloca ptr, align 8
  %18 = alloca i32, align 4
  store ptr %0, ptr %8, align 8
  %19 = getelementptr inbounds nuw { i64, i64 }, ptr %9, i32 0, i32 0
  store i64 %2, ptr %19, align 8
  %20 = getelementptr inbounds nuw { i64, i64 }, ptr %9, i32 0, i32 1
  store i64 %3, ptr %20, align 8
  %21 = load { i64, i64 }, ptr %9, align 8
  %22 = load { i64, i64 }, ptr %5, align 8
  store ptr %1, ptr %10, align 8
  store { i64, i64 } %21, ptr %11, align 8
  store ptr %4, ptr %12, align 8
  store { i64, i64 } %22, ptr %13, align 8
  store i32 %6, ptr %14, align 4
  call void @llvm.lifetime.start.p0(i64 8, ptr %15) #22
  store ptr null, ptr %15, align 8
  %23 = load i32, ptr %14, align 4
  %24 = icmp eq i32 %23, 2
  br i1 %24, label %28, label %25

25:                                               ; preds = %7
  %26 = load i32, ptr %14, align 4
  %27 = icmp eq i32 %26, 3
  br i1 %27, label %28, label %30

28:                                               ; preds = %25, %7
  %29 = call noundef ptr @_ZN9QtPrivate15ConnectionTypesINS_4ListIJEEELb1EE5typesEv()
  store ptr %29, ptr %15, align 8
  br label %30

30:                                               ; preds = %28, %25
  %31 = load ptr, ptr %10, align 8
  %32 = load ptr, ptr %12, align 8
  %33 = call noalias noundef ptr @_Znwm(i64 noundef 32) #25
  %34 = load { i64, i64 }, ptr %13, align 8
  store { i64, i64 } %34, ptr %16, align 8
  %35 = getelementptr inbounds nuw { i64, i64 }, ptr %16, i32 0, i32 0
  %36 = load i64, ptr %35, align 8
  %37 = getelementptr inbounds nuw { i64, i64 }, ptr %16, i32 0, i32 1
  %38 = load i64, ptr %37, align 8
  invoke void @_ZN9QtPrivate11QSlotObjectIM13PacketDiagramFvvENS_4ListIJEEEvEC2ES3_(ptr noundef align 8 dereferenceable_or_null(32) %33, i64 %36, i64 %38)
          to label %39 unwind label %42

39:                                               ; preds = %30
  %40 = load i32, ptr %14, align 4
  %41 = load ptr, ptr %15, align 8
  call void @_ZN7QObject11connectImplEPKS_PPvS1_S3_PN9QtPrivate15QSlotObjectBaseEN2Qt14ConnectionTypeEPKiPK11QMetaObject(ptr dead_on_unwind writable sret(%"class.QMetaObject::Connection") align 8 %0, ptr noundef %31, ptr noundef %11, ptr noundef %32, ptr noundef %13, ptr noundef %33, i32 noundef %40, ptr noundef %41, ptr noundef @_ZN14QGraphicsScene16staticMetaObjectE)
  call void @llvm.lifetime.end.p0(i64 8, ptr %15) #22
  ret void

42:                                               ; preds = %30
  %43 = landingpad { ptr, i32 }
          cleanup
  %44 = extractvalue { ptr, i32 } %43, 0
  store ptr %44, ptr %17, align 8
  %45 = extractvalue { ptr, i32 } %43, 1
  store i32 %45, ptr %18, align 4
  call void @_ZdlPvm(ptr noundef %33, i64 noundef 32) #26
  call void @llvm.lifetime.end.p0(i64 8, ptr %15) #22
  br label %46

46:                                               ; preds = %42
  %47 = load ptr, ptr %17, align 8
  %48 = load i32, ptr %18, align 4
  %49 = insertvalue { ptr, i32 } poison, ptr %47, 0
  %50 = insertvalue { ptr, i32 } %49, i32 %48, 1
  resume { ptr, i32 } %50
}

; Function Attrs: mustprogress null_pointer_is_valid sspstrong uwtable
define void @_ZN13PacketDiagram10resetSceneEb(ptr noundef align 8 dereferenceable_or_null(76) %0, i1 noundef zeroext %1) #0 align 2 personality ptr @__gxx_personality_v0 {
  %3 = alloca ptr, align 8
  %4 = alloca i8, align 1
  %5 = alloca ptr, align 8
  %6 = alloca ptr, align 8
  %7 = alloca i32, align 4
  %8 = alloca %"class.QMetaObject::Connection", align 8
  %9 = alloca { i64, i64 }, align 8
  %10 = alloca { i64, i64 }, align 8
  store ptr %0, ptr %3, align 8
  %11 = zext i1 %1 to i8
  store i8 %11, ptr %4, align 1
  %12 = load ptr, ptr %3, align 8
  %13 = call noundef ptr @_ZNK13QGraphicsView5sceneEv(ptr noundef align 8 dereferenceable_or_null(40) %12)
  %14 = icmp ne ptr %13, null
  br i1 %14, label %15, label %23

15:                                               ; preds = %2
  %16 = call noundef ptr @_ZNK13QGraphicsView5sceneEv(ptr noundef align 8 dereferenceable_or_null(40) %12)
  %17 = icmp eq ptr %16, null
  br i1 %17, label %22, label %18

18:                                               ; preds = %15
  %19 = load ptr, ptr %16, align 8
  %20 = getelementptr inbounds ptr, ptr %19, i64 4
  %21 = load ptr, ptr %20, align 8
  call void %21(ptr noundef align 8 dereferenceable_or_null(16) %16) #22
  br label %22

22:                                               ; preds = %18, %15
  br label %23

23:                                               ; preds = %22, %2
  %24 = call noundef ptr @_ZNK19QAbstractScrollArea8viewportEv(ptr noundef align 8 dereferenceable_or_null(40) %12)
  call void @_ZN7QWidget6updateEv(ptr noundef align 8 dereferenceable_or_null(40) %24)
  call void @llvm.lifetime.start.p0(i64 8, ptr %5) #22
  %25 = call noalias noundef ptr @_Znwm(i64 noundef 16) #25
  invoke void @_ZN14QGraphicsSceneC1EP7QObject(ptr noundef align 8 dereferenceable_or_null(16) %25, ptr noundef null)
          to label %26 unwind label %41

26:                                               ; preds = %23
  store ptr %25, ptr %5, align 8
  %27 = load ptr, ptr %5, align 8
  call void @_ZN13QGraphicsView8setSceneEP14QGraphicsScene(ptr noundef align 8 dereferenceable_or_null(40) %12, ptr noundef %27)
  %28 = load ptr, ptr %5, align 8
  store { i64, i64 } { i64 ptrtoint (ptr @_ZN14QGraphicsScene16selectionChangedEv to i64), i64 0 }, ptr %9, align 8
  %29 = getelementptr inbounds nuw { i64, i64 }, ptr %9, i32 0, i32 0
  %30 = load i64, ptr %29, align 8
  %31 = getelementptr inbounds nuw { i64, i64 }, ptr %9, i32 0, i32 1
  %32 = load i64, ptr %31, align 8
  call void @llvm.lifetime.start.p0(i64 16, ptr %10) #22
  store { i64, i64 } { i64 ptrtoint (ptr @_ZN13PacketDiagram21sceneSelectionChangedEv to i64), i64 0 }, ptr %10, align 8
  call void @_ZN7QObject7connectIM14QGraphicsSceneFvvEM13PacketDiagramFvvEEEN11QMetaObject10ConnectionEPKN9QtPrivate15FunctionPointerIT_E6ObjectESB_PKNSA_IT0_E6ObjectESG_N2Qt14ConnectionTypeE(ptr dead_on_unwind writable sret(%"class.QMetaObject::Connection") align 8 %8, ptr noundef %28, i64 %30, i64 %32, ptr noundef %12, ptr noundef byval({ i64, i64 }) align 8 %10, i32 noundef 0)
  call void @llvm.lifetime.end.p0(i64 16, ptr %10) #22
  call void @_ZN11QMetaObject10ConnectionD1Ev(ptr noundef align 8 dereferenceable_or_null(8) %8) #22
  %33 = load i8, ptr %4, align 1, !range !6, !noundef !7
  %34 = trunc i8 %33 to i1
  br i1 %34, label %35, label %36

35:                                               ; preds = %26
  br label %39

36:                                               ; preds = %26
  %37 = getelementptr inbounds nuw %class.PacketDiagram, ptr %12, i32 0, i32 3
  %38 = load ptr, ptr %37, align 8
  br label %39

39:                                               ; preds = %36, %35
  %40 = phi ptr [ null, %35 ], [ %38, %36 ]
  call void @_ZN13PacketDiagram11setRootNodeEP11_proto_node(ptr noundef align 8 dereferenceable_or_null(76) %12, ptr noundef %40)
  call void @llvm.lifetime.end.p0(i64 8, ptr %5) #22
  ret void

41:                                               ; preds = %23
  %42 = landingpad { ptr, i32 }
          cleanup
  %43 = extractvalue { ptr, i32 } %42, 0
  store ptr %43, ptr %6, align 8
  %44 = extractvalue { ptr, i32 } %42, 1
  store i32 %44, ptr %7, align 4
  call void @_ZdlPvm(ptr noundef %25, i64 noundef 16) #26
  call void @llvm.lifetime.end.p0(i64 8, ptr %5) #22
  br label %45

45:                                               ; preds = %41
  %46 = load ptr, ptr %6, align 8
  %47 = load i32, ptr %7, align 4
  %48 = insertvalue { ptr, i32 } poison, ptr %46, 0
  %49 = insertvalue { ptr, i32 } %48, i32 %47, 1
  resume { ptr, i32 } %49
}