; Function Attrs: mustprogress null_pointer_is_valid sspstrong uwtable
define void @_ZN13PacketDiagram10resetSceneEb(ptr noundef align 8 dereferenceable_or_null(76) %0, i1 noundef zeroext %1) #0 align 2 personality ptr @__gxx_personality_v0 {
  %3 = alloca { i64, i64 }, align 8
  %4 = alloca { i64, i64 }, align 8
  %5 = alloca %"class.QMetaObject::Connection", align 8
  %6 = tail call noundef ptr @_ZNK13QGraphicsView5sceneEv(ptr noundef align 8 dereferenceable_or_null(40) %0)
  %.not = icmp eq ptr %6, null
  br i1 %.not, label %14, label %7

7:                                                ; preds = %2
  %8 = tail call noundef ptr @_ZNK13QGraphicsView5sceneEv(ptr noundef align 8 dereferenceable_or_null(40) %0)
  %9 = icmp eq ptr %8, null
  br i1 %9, label %14, label %10

10:                                               ; preds = %7
  %11 = load ptr, ptr %8, align 8
  %12 = getelementptr inbounds nuw i8, ptr %11, i64 32
  %13 = load ptr, ptr %12, align 8
  tail call void %13(ptr noundef nonnull align 8 dereferenceable_or_null(16) %8) #21
  br label %14

14:                                               ; preds = %7, %10, %2
  %15 = tail call noundef ptr @_ZNK19QAbstractScrollArea8viewportEv(ptr noundef align 8 dereferenceable_or_null(40) %0)
  tail call void @_ZN7QWidget6updateEv(ptr noundef align 8 dereferenceable_or_null(40) %15)
  %16 = tail call noalias noundef dereferenceable_or_null(16) ptr @_Znwm(i64 noundef 16) #20
  invoke void @_ZN14QGraphicsSceneC1EP7QObject(ptr noundef align 8 dereferenceable_or_null(16) %16, ptr noundef null)
          to label %17 unwind label %26

17:                                               ; preds = %14
  tail call void @_ZN13QGraphicsView8setSceneEP14QGraphicsScene(ptr noundef align 8 dereferenceable_or_null(40) %0, ptr noundef %16)
  call void @llvm.lifetime.start.p0(i64 16, ptr nonnull %3)
  call void @llvm.lifetime.start.p0(i64 16, ptr nonnull %4)
  store i64 ptrtoint (ptr @_ZN14QGraphicsScene16selectionChangedEv to i64), ptr %3, align 8, !noalias !24
  %.fca.1.gep14.i = getelementptr inbounds nuw i8, ptr %3, i64 8
  store i64 0, ptr %.fca.1.gep14.i, align 8, !noalias !24
  store i64 ptrtoint (ptr @_ZN13PacketDiagram21sceneSelectionChangedEv to i64), ptr %4, align 8, !noalias !24
  %.fca.1.gep.i = getelementptr inbounds nuw i8, ptr %4, i64 8
  store i64 0, ptr %.fca.1.gep.i, align 8, !noalias !24
  %18 = tail call noalias noundef dereferenceable_or_null(32) ptr @_Znwm(i64 noundef 32) #20, !noalias !24
  store i32 1, ptr %18, align 4, !noalias !24
  %19 = getelementptr inbounds nuw i8, ptr %18, i64 8
  store ptr @_ZN9QtPrivate11QSlotObjectIM13PacketDiagramFvvENS_4ListIJEEEvE4implEiPNS_15QSlotObjectBaseEP7QObjectPPvPb, ptr %19, align 8, !noalias !24
  %20 = getelementptr inbounds nuw i8, ptr %18, i64 16
  store i64 ptrtoint (ptr @_ZN13PacketDiagram21sceneSelectionChangedEv to i64), ptr %20, align 8, !noalias !24
  %.repack7.i.i = getelementptr inbounds nuw i8, ptr %18, i64 24
  store i64 0, ptr %.repack7.i.i, align 8, !noalias !24
  call void @_ZN7QObject11connectImplEPKS_PPvS1_S3_PN9QtPrivate15QSlotObjectBaseEN2Qt14ConnectionTypeEPKiPK11QMetaObject(ptr dead_on_unwind nonnull writable sret(%"class.QMetaObject::Connection") align 8 %5, ptr noundef %16, ptr noundef nonnull %3, ptr noundef %0, ptr noundef nonnull %4, ptr noundef %18, i32 noundef 0, ptr noundef null, ptr noundef nonnull @_ZN14QGraphicsScene16staticMetaObjectE)
  call void @llvm.lifetime.end.p0(i64 16, ptr nonnull %3)
  call void @llvm.lifetime.end.p0(i64 16, ptr nonnull %4)
  call void @_ZN11QMetaObject10ConnectionD1Ev(ptr noundef nonnull align 8 dereferenceable_or_null(8) %5) #21
  br i1 %1, label %24, label %21

21:                                               ; preds = %17
  %22 = getelementptr inbounds nuw i8, ptr %0, i64 56
  %23 = load ptr, ptr %22, align 8
  br label %24

24:                                               ; preds = %17, %21
  %25 = phi ptr [ %23, %21 ], [ null, %17 ]
  call void @_ZN13PacketDiagram11setRootNodeEP11_proto_node(ptr noundef align 8 dereferenceable_or_null(76) %0, ptr noundef %25)
  ret void

26:                                               ; preds = %14
  %27 = landingpad { ptr, i32 }
          cleanup
  tail call void @_ZdlPvm(ptr noundef %16, i64 noundef 16) #22
  resume { ptr, i32 } %27
}